Certificate:
    Data:
        Version: 3 (0x2)
        Serial Number: 1 (0x1)
    Signature Algorithm: sha256WithRSAEncryption
        Issuer: C=FR, ST=Radius, L=Somewhere, O=Example Inc./emailAddress=admin@example.org, CN=Example Certificate Authority
        Validity
            Not Before: Nov  4 23:25:26 2018 GMT
            Not After : Apr 26 23:25:26 2024 GMT
        Subject: C=FR, ST=Radius, O=Example Inc., CN=Example Server Certificate/emailAddress=admin@example.org
        Subject Public Key Info:
            Public Key Algorithm: rsaEncryption
                Public-Key: (2048 bit)
                Modulus:
                    00:d3:a4:02:7c:09:d2:69:f8:46:46:da:e1:41:99:
                    2f:e5:d0:56:5f:2c:ab:16:99:2f:fa:24:fd:43:9e:
                    2f:bd:e7:27:d7:0d:73:86:2b:0c:e0:cd:06:41:05:
                    62:81:00:db:22:20:66:3f:49:3d:19:b4:30:fd:c7:
                    ab:dd:c7:b6:b2:c9:f8:71:2c:90:0f:57:69:ab:ef:
                    d1:d9:ae:fb:16:e2:49:54:18:f8:c7:7b:05:29:d8:
                    b7:b9:9d:c9:65:70:35:68:50:81:48:25:83:02:9e:
                    4a:95:d6:63:85:1e:85:b4:33:91:82:9a:45:48:9d:
                    d0:e4:6e:6f:aa:59:9a:bc:4d:73:5a:30:0f:95:cb:
                    8b:fb:76:d5:04:66:43:a5:0f:84:d6:4c:c0:51:54:
                    bf:24:fe:6e:ca:bc:dd:c7:b0:b7:11:48:f8:d7:ba:
                    eb:3f:17:ed:c3:9e:59:59:31:fc:b6:a4:57:52:d7:
                    b7:9b:61:6d:8a:88:1f:49:e3:1d:75:4c:f6:cb:5f:
                    bc:47:01:22:a4:16:f8:a4:0d:62:74:6f:ce:dd:5f:
                    a2:b6:bd:e0:97:1e:af:f0:8e:5f:4f:71:cb:ce:0d:
                    ec:13:8b:98:bb:86:90:c4:f6:59:13:58:3b:44:b2:
                    81:b5:cb:b1:de:b4:db:32:8b:7d:26:fe:54:66:02:
                    14:33
                Exponent: 65537 (0x10001)
        X509v3 extensions:
            X509v3 Extended Key Usage: 
                TLS Web Server Authentication
            X509v3 CRL Distribution Points: 

                Full Name:
                  URI:http://www.example.com/example_ca.crl

    Signature Algorithm: sha256WithRSAEncryption
         96:7d:49:86:2a:21:59:f4:33:4c:01:b1:1d:96:d7:04:54:ae:
         5b:0d:ce:10:ef:7e:f9:f8:41:1d:c0:0a:aa:a0:fe:41:17:36:
         78:ca:07:d6:85:52:3f:b1:ec:52:44:06:7f:f8:08:24:07:4e:
         23:a6:d3:05:b0:91:c5:44:a8:ee:c3:6d:80:6b:61:c8:12:4d:
         bd:fd:70:95:92:29:6b:34:27:f3:af:9e:20:09:be:a9:3d:e1:
         76:cb:5d:56:f3:9b:c3:b2:63:dc:f1:51:3c:66:76:d1:ca:a1:
         7d:b9:1a:cd:9a:11:79:05:e8:95:63:85:49:8c:ba:1d:22:11:
         65:94:4d:68:64:6d:24:42:7c:30:c5:61:c1:31:60:f9:14:00:
         25:4d:ed:96:23:72:0a:85:a7:08:c1:56:c4:38:e2:62:ec:bd:
         cc:e0:0b:23:da:99:17:fe:d3:93:5d:51:1a:36:ed:9d:9b:8e:
         af:bb:f1:91:a5:fd:35:d1:74:fa:ce:fb:0c:70:52:46:53:78:
         d7:d7:0d:03:dc:57:5d:56:ea:d5:17:fe:e3:25:00:26:3d:79:
         81:c6:c0:26:b6:ff:a5:f8:f3:c1:8c:0f:26:f1:05:8b:15:fb:
         5b:62:2a:0e:a9:e7:5b:40:22:ae:25:96:db:18:1a:61:10:44:
         49:9f:9f:49
-----BEGIN CERTIFICATE-----
MIID2jCCAsKgAwIBAgIBATANBgkqhkiG9w0BAQsFADCBkzELMAkGA1UEBhMCRlIx
DzANBgNVBAgMBlJhZGl1czESMBAGA1UEBwwJU29tZXdoZXJlMRUwEwYDVQQKDAxF
eGFtcGxlIEluYy4xIDAeBgkqhkiG9w0BCQEWEWFkbWluQGV4YW1wbGUub3JnMSYw
JAYDVQQDDB1FeGFtcGxlIENlcnRpZmljYXRlIEF1dGhvcml0eTAeFw0xODExMDQy
MzI1MjZaFw0yNDA0MjYyMzI1MjZaMHwxCzAJBgNVBAYTAkZSMQ8wDQYDVQQIDAZS
YWRpdXMxFTATBgNVBAoMDEV4YW1wbGUgSW5jLjEjMCEGA1UEAwwaRXhhbXBsZSBT
ZXJ2ZXIgQ2VydGlmaWNhdGUxIDAeBgkqhkiG9w0BCQEWEWFkbWluQGV4YW1wbGUu
b3JnMIIBIjANBgkqhkiG9w0BAQEFAAOCAQ8AMIIBCgKCAQEA06QCfAnSafhGRtrh
QZkv5dBWXyyrFpkv+iT9Q54vvecn1w1zhisM4M0GQQVigQDbIiBmP0k9GbQw/cer
3ce2ssn4cSyQD1dpq+/R2a77FuJJVBj4x3sFKdi3uZ3JZXA1aFCBSCWDAp5KldZj
hR6FtDORgppFSJ3Q5G5vqlmavE1zWjAPlcuL+3bVBGZDpQ+E1kzAUVS/JP5uyrzd
x7C3EUj417rrPxftw55ZWTH8tqRXUte3m2FtiogfSeMddUz2y1+8RwEipBb4pA1i
dG/O3V+itr3glx6v8I5fT3HLzg3sE4uYu4aQxPZZE1g7RLKBtcux3rTbMot9Jv5U
ZgIUMwIDAQABo08wTTATBgNVHSUEDDAKBggrBgEFBQcDATA2BgNVHR8ELzAtMCug
KaAnhiVodHRwOi8vd3d3LmV4YW1wbGUuY29tL2V4YW1wbGVfY2EuY3JsMA0GCSqG
SIb3DQEBCwUAA4IBAQCWfUmGKiFZ9DNMAbEdltcEVK5bDc4Q7375+EEdwAqqoP5B
FzZ4ygfWhVI/sexSRAZ/+AgkB04jptMFsJHFRKjuw22Aa2HIEk29/XCVkilrNCfz
r54gCb6pPeF2y11W85vDsmPc8VE8ZnbRyqF9uRrNmhF5BeiVY4VJjLodIhFllE1o
ZG0kQnwwxWHBMWD5FAAlTe2WI3IKhacIwVbEOOJi7L3M4Asj2pkX/tOTXVEaNu2d
m46vu/GRpf010XT6zvsMcFJGU3jX1w0D3FddVurVF/7jJQAmPXmBxsAmtv+l+PPB
jA8m8QWLFftbYioOqedbQCKuJZbbGBphEERJn59J
-----END CERTIFICATE-----
