Certificate:
    Data:
        Version: 3 (0x2)
        Serial Number: 2 (0x2)
    Signature Algorithm: sha256WithRSAEncryption
        Issuer: C=FR, ST=Radius, L=Somewhere, O=Example Inc./emailAddress=admin@example.org, CN=Example Certificate Authority
        Validity
            Not Before: Nov  4 23:25:38 2018 GMT
            Not After : Apr 26 23:25:38 2024 GMT
        Subject: C=FR, ST=Radius, O=Example Inc., CN=user@example.org/emailAddress=user@example.org
        Subject Public Key Info:
            Public Key Algorithm: rsaEncryption
                Public-Key: (2048 bit)
                Modulus:
                    00:d9:4f:d8:18:c6:24:65:0f:bf:bd:83:27:b8:e0:
                    b7:13:5d:4a:e9:ac:23:a9:3d:70:45:3e:51:b0:12:
                    33:84:61:ee:44:e4:3b:de:1f:48:0d:25:cf:77:6a:
                    86:9b:e2:5a:ef:84:5c:0c:80:6b:cd:ef:42:5a:2a:
                    db:00:0d:ba:00:61:91:1c:f5:fc:52:33:cd:8d:31:
                    9a:3e:17:85:a7:f8:bb:71:3c:0d:6b:e6:de:d2:ab:
                    ba:0c:e4:fd:15:61:a0:30:f3:8b:35:4b:ce:2d:2b:
                    72:75:ca:45:d4:ef:f9:7a:f0:fc:38:5b:29:2c:0e:
                    ea:26:94:c0:0d:d8:18:fe:57:79:14:d4:8c:f4:6b:
                    94:04:6e:ae:2c:30:35:a0:23:d7:6a:e4:b5:1c:07:
                    81:fb:22:80:be:73:71:a5:e4:76:50:c3:21:59:eb:
                    58:49:3a:c8:45:33:5a:f3:22:54:09:39:4e:b1:0a:
                    02:e3:36:7e:13:37:49:06:c4:9c:33:ad:af:98:49:
                    75:dd:3a:60:77:ac:d5:b8:3b:eb:a3:22:24:1e:71:
                    d3:e1:6d:e4:aa:09:7c:7f:3a:1c:e8:f4:85:f8:86:
                    0f:cd:86:f0:7f:e8:d1:02:8c:68:98:62:0b:a5:fc:
                    17:da:40:54:7a:81:1b:09:ce:d7:46:61:46:88:5a:
                    27:21
                Exponent: 65537 (0x10001)
        X509v3 extensions:
            X509v3 Extended Key Usage: 
                TLS Web Client Authentication
            X509v3 CRL Distribution Points: 

                Full Name:
                  URI:http://www.example.com/example_ca.crl

    Signature Algorithm: sha256WithRSAEncryption
         02:bd:85:13:a3:49:86:df:98:b7:60:8a:b1:06:a7:85:e7:b1:
         81:d8:6f:c7:00:60:ae:f5:b1:72:55:42:83:02:11:5a:21:f1:
         cd:ee:39:41:ea:11:fd:08:fc:15:c3:66:f3:93:ad:88:0e:b5:
         ca:d9:98:82:5b:a5:21:17:85:7b:b5:dd:f7:a1:23:e6:95:2b:
         46:45:14:65:50:b6:d5:1d:8c:05:bf:88:f9:15:d7:c7:bb:3b:
         cb:cc:8a:6d:74:29:86:55:05:3c:82:7f:38:c5:87:63:e0:a7:
         cc:51:73:7d:b2:16:1b:3b:2d:85:81:15:da:77:a4:90:97:90:
         ea:cb:8d:0d:a4:f9:47:50:a8:c1:1a:e1:14:e3:ab:b2:c1:98:
         ae:f9:f1:8c:e8:05:a8:83:a8:cd:fb:c4:14:63:f9:ff:c7:d3:
         89:0d:f6:c5:89:b9:b6:c8:81:29:5d:5f:2d:2e:07:67:78:83:
         e0:48:4a:0f:fc:c5:04:c0:99:08:6d:cb:9b:76:83:9b:76:d8:
         4c:92:65:c8:b7:93:71:26:77:4a:52:a3:6b:0e:3c:f8:2d:54:
         dc:da:cd:01:85:c8:a1:a6:13:04:4e:a5:76:75:33:a9:f4:17:
         13:7c:d5:d8:d9:19:27:56:01:27:b6:ec:0e:a0:e9:83:f5:d5:
         6e:70:3f:9e
-----BEGIN CERTIFICATE-----
MIIDzzCCAregAwIBAgIBAjANBgkqhkiG9w0BAQsFADCBkzELMAkGA1UEBhMCRlIx
DzANBgNVBAgMBlJhZGl1czESMBAGA1UEBwwJU29tZXdoZXJlMRUwEwYDVQQKDAxF
eGFtcGxlIEluYy4xIDAeBgkqhkiG9w0BCQEWEWFkbWluQGV4YW1wbGUub3JnMSYw
JAYDVQQDDB1FeGFtcGxlIENlcnRpZmljYXRlIEF1dGhvcml0eTAeFw0xODExMDQy
MzI1MzhaFw0yNDA0MjYyMzI1MzhaMHExCzAJBgNVBAYTAkZSMQ8wDQYDVQQIDAZS
YWRpdXMxFTATBgNVBAoMDEV4YW1wbGUgSW5jLjEZMBcGA1UEAwwQdXNlckBleGFt
cGxlLm9yZzEfMB0GCSqGSIb3DQEJARYQdXNlckBleGFtcGxlLm9yZzCCASIwDQYJ
KoZIhvcNAQEBBQADggEPADCCAQoCggEBANlP2BjGJGUPv72DJ7jgtxNdSumsI6k9
cEU+UbASM4Rh7kTkO94fSA0lz3dqhpviWu+EXAyAa83vQloq2wANugBhkRz1/FIz
zY0xmj4Xhaf4u3E8DWvm3tKrugzk/RVhoDDzizVLzi0rcnXKRdTv+Xrw/DhbKSwO
6iaUwA3YGP5XeRTUjPRrlARuriwwNaAj12rktRwHgfsigL5zcaXkdlDDIVnrWEk6
yEUzWvMiVAk5TrEKAuM2fhM3SQbEnDOtr5hJdd06YHes1bg766MiJB5x0+Ft5KoJ
fH86HOj0hfiGD82G8H/o0QKMaJhiC6X8F9pAVHqBGwnO10ZhRohaJyECAwEAAaNP
ME0wEwYDVR0lBAwwCgYIKwYBBQUHAwIwNgYDVR0fBC8wLTAroCmgJ4YlaHR0cDov
L3d3dy5leGFtcGxlLmNvbS9leGFtcGxlX2NhLmNybDANBgkqhkiG9w0BAQsFAAOC
AQEAAr2FE6NJht+Yt2CKsQanheexgdhvxwBgrvWxclVCgwIRWiHxze45QeoR/Qj8
FcNm85OtiA61ytmYglulIReFe7Xd96Ej5pUrRkUUZVC21R2MBb+I+RXXx7s7y8yK
bXQphlUFPIJ/OMWHY+CnzFFzfbIWGzsthYEV2nekkJeQ6suNDaT5R1CowRrhFOOr
ssGYrvnxjOgFqIOozfvEFGP5/8fTiQ32xYm5tsiBKV1fLS4HZ3iD4EhKD/zFBMCZ
CG3Lm3aDm3bYTJJlyLeTcSZ3SlKjaw48+C1U3NrNAYXIoaYTBE6ldnUzqfQXE3zV
2NkZJ1YBJ7bsDqDpg/XVbnA/ng==
-----END CERTIFICATE-----
